Certificate:
    Data:
        Version: 3 (0x2)
        Serial Number: 1 (0x1)
    Signature Algorithm: sha1WithRSAEncryption
        Issuer: C=AU, ST=Some-State, O=Internet Widgits Pty Ltd, CN=ln5
        Validity
            Not Before: Jun 28 16:04:56 2013 GMT
            Not After : Jun 28 16:04:56 2014 GMT
        Subject: C=AU, ST=Some-State, O=Internet Widgits Pty Ltd, CN=ln5
        Subject Public Key Info:
            Public Key Algorithm: rsaEncryption
                Public-Key: (2048 bit)
                Modulus:
                    00:c1:2b:d5:1d:35:18:d8:39:ab:c2:18:9f:c9:f4:
                    63:3b:a7:df:b3:28:67:98:14:98:4b:e9:0a:74:71:
                    31:de:cd:90:02:c6:ae:ce:2b:21:12:68:cf:f6:f6:
                    e2:2d:96:87:15:33:93:37:70:d4:11:ad:45:27:f2:
                    c5:06:bd:cd:02:c4:21:46:2b:31:cd:ef:09:62:15:
                    a2:40:bd:d2:b6:43:12:df:fd:b6:c3:02:e7:43:60:
                    71:a3:a8:62:f5:c9:e1:91:4b:53:44:19:00:ce:23:
                    79:c0:2b:95:d7:09:65:37:68:0f:00:df:04:8d:e2:
                    78:4b:6b:0f:44:8b:6e:0b:d6:91:10:93:f5:97:26:
                    96:72:17:c9:2a:a5:db:8a:e0:f3:93:14:72:a3:fb:
                    45:e7:e9:e2:3c:79:53:0e:09:3d:d7:77:1a:dc:9a:
                    83:69:e3:d4:77:c1:0b:36:fa:2d:82:a4:1f:f9:39:
                    0f:c3:e7:97:53:2f:cf:74:12:bb:44:c1:14:9f:43:
                    a2:ec:7c:04:7c:f2:31:10:4f:5d:b7:fb:a0:b8:5d:
                    a2:e4:c2:1e:3c:70:df:6f:f5:f0:b7:aa:19:88:6f:
                    93:4f:bb:6b:cb:55:c9:ac:ae:de:4d:0d:e7:c5:52:
                    bb:f8:1a:a1:fa:6b:a7:c9:d5:67:2e:3f:59:73:e8:
                    5d:d7
                Exponent: 65537 (0x10001)
        X509v3 extensions:
            X509v3 Basic Constraints: 
                CA:FALSE
            Netscape Comment: 
                OpenSSL Generated Certificate
            X509v3 Subject Key Identifier: 
                AD:7B:28:EB:1F:F8:0C:40:32:A8:39:65:1B:7A:70:09:74:F2:D6:40
            X509v3 Authority Key Identifier: 
                keyid:AD:7B:28:EB:1F:F8:0C:40:32:A8:39:65:1B:7A:70:09:74:F2:D6:40

    Signature Algorithm: sha1WithRSAEncryption
         34:a2:b9:ad:7f:d3:81:b7:c4:db:76:41:65:3e:85:20:d3:27:
         f2:af:db:6d:4b:15:64:be:c7:c8:69:92:dc:b6:c1:e6:66:7b:
         d8:e0:ae:c2:c5:65:df:b8:2d:c4:e5:21:ba:2e:f7:d0:67:77:
         0b:19:29:99:8f:22:04:bd:ac:af:00:cb:a8:4d:d1:2e:d9:67:
         f1:6a:6a:8b:c9:8c:6c:fa:0d:77:95:a6:08:50:79:b3:4b:a5:
         1b:dc:d4:78:ec:b4:8b:86:5a:62:1e:dd:9f:3e:6a:4f:d8:1b:
         d0:08:5d:08:16:f3:20:11:f9:5f:15:a8:5e:a0:f1:42:fc:c7:
         95:e1:be:13:18:0d:e4:4b:3d:72:8c:6b:4e:bc:70:0a:5b:ef:
         31:b7:91:0b:00:22:96:0e:53:ed:98:b8:c8:11:2a:75:52:5b:
         ea:fa:ed:11:79:bf:76:98:b2:bf:16:b6:4f:af:36:4d:db:9d:
         a5:10:ae:b6:25:48:67:eb:ac:60:bf:f2:bb:e7:0b:8e:01:54:
         b9:45:82:03:54:29:03:bc:08:57:12:b1:b1:58:8b:4b:b5:b8:
         e3:af:f0:13:e2:01:d7:34:45:74:f8:a7:9a:5e:bf:f3:04:29:
         2d:ff:c5:49:ea:68:71:56:b4:91:74:e2:94:b6:3d:85:86:81:
         f5:0b:91:55
-----BEGIN CERTIFICATE-----
MIIDnDCCAoSgAwIBAgIBATANBgkqhkiG9w0BAQUFADBTMQswCQYDVQQGEwJBVTET
MBEGA1UECAwKU29tZS1TdGF0ZTEhMB8GA1UECgwYSW50ZXJuZXQgV2lkZ2l0cyBQ
dHkgTHRkMQwwCgYDVQQDDANsbjUwHhcNMTMwNjI4MTYwNDU2WhcNMTQwNjI4MTYw
NDU2WjBTMQswCQYDVQQGEwJBVTETMBEGA1UECAwKU29tZS1TdGF0ZTEhMB8GA1UE
CgwYSW50ZXJuZXQgV2lkZ2l0cyBQdHkgTHRkMQwwCgYDVQQDDANsbjUwggEiMA0G
CSqGSIb3DQEBAQUAA4IBDwAwggEKAoIBAQDBK9UdNRjYOavCGJ/J9GM7p9+zKGeY
FJhL6Qp0cTHezZACxq7OKyESaM/29uItlocVM5M3cNQRrUUn8sUGvc0CxCFGKzHN
7wliFaJAvdK2QxLf/bbDAudDYHGjqGL1yeGRS1NEGQDOI3nAK5XXCWU3aA8A3wSN
4nhLaw9Ei24L1pEQk/WXJpZyF8kqpduK4POTFHKj+0Xn6eI8eVMOCT3XdxrcmoNp
49R3wQs2+i2CpB/5OQ/D55dTL890ErtEwRSfQ6LsfAR88jEQT123+6C4XaLkwh48
cN9v9fC3qhmIb5NPu2vLVcmsrt5NDefFUrv4GqH6a6fJ1WcuP1lz6F3XAgMBAAGj
ezB5MAkGA1UdEwQCMAAwLAYJYIZIAYb4QgENBB8WHU9wZW5TU0wgR2VuZXJhdGVk
IENlcnRpZmljYXRlMB0GA1UdDgQWBBSteyjrH/gMQDKoOWUbenAJdPLWQDAfBgNV
HSMEGDAWgBSteyjrH/gMQDKoOWUbenAJdPLWQDANBgkqhkiG9w0BAQUFAAOCAQEA
NKK5rX/TgbfE23ZBZT6FINMn8q/bbUsVZL7HyGmS3LbB5mZ72OCuwsVl37gtxOUh
ui730Gd3CxkpmY8iBL2srwDLqE3RLtln8Wpqi8mMbPoNd5WmCFB5s0ulG9zUeOy0
i4ZaYh7dnz5qT9gb0AhdCBbzIBH5XxWoXqDxQvzHleG+ExgN5Es9coxrTrxwClvv
MbeRCwAilg5T7Zi4yBEqdVJb6vrtEXm/dpiyvxa2T682TdudpRCutiVIZ+usYL/y
u+cLjgFUuUWCA1QpA7wIVxKxsViLS7W446/wE+IB1zRFdPinml6/8wQpLf/FSepo
cVa0kXTilLY9hYaB9QuRVQ==
-----END CERTIFICATE-----
